; Function Attrs: nounwind uwtable
define ptr @l_List_foldl___at_Lean_Meta_RecursorInfo_instToString___spec__4(ptr noundef %0, ptr noundef %1) local_unnamed_addr #0 {
  br label %lean_dec.exit

lean_dec.exit:                                    ; preds = %lean_dec.exit.backedge, %2
  %.030 = phi ptr [ %1, %2 ], [ %25, %lean_dec.exit.backedge ]
  %.0 = phi ptr [ %0, %2 ], [ %.0.be, %lean_dec.exit.backedge ]
  %3 = ptrtoint ptr %.030 to i64
  %4 = and i64 %3, 1
  %.not.i46 = icmp eq i64 %4, 0
  br i1 %.not.i46, label %8, label %5

5:                                                ; preds = %lean_dec.exit
  %6 = lshr i64 %3, 1
  %7 = trunc i64 %6 to i32
  br label %lean_obj_tag.exit

8:                                                ; preds = %lean_dec.exit
  %9 = getelementptr i8, ptr %.030, i64 4
  %.val.i = load i32, ptr %9, align 4
  %10 = lshr i32 %.val.i, 24
  br label %lean_obj_tag.exit

lean_obj_tag.exit:                                ; preds = %5, %8
  %.0.i = phi i32 [ %7, %5 ], [ %10, %8 ]
  %11 = icmp eq i32 %.0.i, 0
  br i1 %11, label %12, label %13

12:                                               ; preds = %lean_obj_tag.exit
  ret ptr %.0

13:                                               ; preds = %lean_obj_tag.exit
  %14 = getelementptr inbounds nuw i8, ptr %.030, i64 8
  %15 = load ptr, ptr %14, align 8, !tbaa !4
  %16 = ptrtoint ptr %15 to i64
  %17 = and i64 %16, 1
  %.not = icmp eq i64 %17, 0
  br i1 %.not, label %18, label %lean_inc.exit33

18:                                               ; preds = %13
  %.val.i47 = load i32, ptr %15, align 4, !tbaa !8
  %19 = icmp sgt i32 %.val.i47, 0
  br i1 %19, label %20, label %22, !prof !11

20:                                               ; preds = %18
  %21 = add nuw i32 %.val.i47, 1
  store i32 %21, ptr %15, align 4, !tbaa !8
  br label %lean_inc.exit33

22:                                               ; preds = %18
  %.not.i48 = icmp eq i32 %.val.i47, 0
  br i1 %.not.i48, label %lean_inc.exit33, label %23

23:                                               ; preds = %22
  tail call void @lean_inc_ref_cold(ptr noundef nonnull %15) #6
  br label %lean_inc.exit33

lean_inc.exit33:                                  ; preds = %23, %22, %20, %13
  %24 = getelementptr inbounds nuw i8, ptr %.030, i64 16
  %25 = load ptr, ptr %24, align 8, !tbaa !4
  %26 = ptrtoint ptr %25 to i64
  %27 = and i64 %26, 1
  %.not59 = icmp eq i64 %27, 0
  br i1 %.not59, label %28, label %lean_inc.exit32

28:                                               ; preds = %lean_inc.exit33
  %.val.i49 = load i32, ptr %25, align 4, !tbaa !8
  %29 = icmp sgt i32 %.val.i49, 0
  br i1 %29, label %30, label %32, !prof !11

30:                                               ; preds = %28
  %31 = add nuw i32 %.val.i49, 1
  store i32 %31, ptr %25, align 4, !tbaa !8
  br label %lean_inc.exit32

32:                                               ; preds = %28
  %.not.i50 = icmp eq i32 %.val.i49, 0
  br i1 %.not.i50, label %lean_inc.exit32, label %33

33:                                               ; preds = %32
  tail call void @lean_inc_ref_cold(ptr noundef nonnull %25) #6
  br label %lean_inc.exit32

lean_inc.exit32:                                  ; preds = %33, %32, %30, %lean_inc.exit33
  br i1 %.not.i46, label %34, label %lean_dec.exit37

34:                                               ; preds = %lean_inc.exit32
  %35 = load i32, ptr %.030, align 4, !tbaa !8
  %36 = icmp sgt i32 %35, 1
  br i1 %36, label %37, label %39, !prof !11

37:                                               ; preds = %34
  %38 = add nsw i32 %35, -1
  store i32 %38, ptr %.030, align 4, !tbaa !8
  br label %lean_dec.exit37

39:                                               ; preds = %34
  %.not.i = icmp eq i32 %35, 0
  br i1 %.not.i, label %lean_dec.exit37, label %40

40:                                               ; preds = %39
  tail call void @lean_dec_ref_cold(ptr noundef nonnull %.030) #6
  br label %lean_dec.exit37

lean_dec.exit37:                                  ; preds = %40, %39, %37, %lean_inc.exit32
  %41 = load ptr, ptr @l_List_foldl___at_Lean_Meta_RecursorInfo_instToString___spec__2___closed__1, align 8, !tbaa !4
  %42 = tail call ptr @lean_string_append(ptr noundef %.0, ptr noundef %41) #6
  br i1 %.not, label %46, label %43

43:                                               ; preds = %lean_dec.exit37
  %44 = lshr i64 %16, 1
  %45 = trunc i64 %44 to i32
  br label %lean_obj_tag.exit55

46:                                               ; preds = %lean_dec.exit37
  %47 = getelementptr i8, ptr %15, i64 4
  %.val.i54 = load i32, ptr %47, align 4
  %48 = lshr i32 %.val.i54, 24
  br label %lean_obj_tag.exit55

lean_obj_tag.exit55:                              ; preds = %43, %46
  %.0.i53 = phi i32 [ %45, %43 ], [ %48, %46 ]
  %49 = icmp eq i32 %.0.i53, 0
  br i1 %49, label %50, label %53

50:                                               ; preds = %lean_obj_tag.exit55
  %51 = load ptr, ptr @l_List_foldl___at_Lean_Meta_RecursorInfo_instToString___spec__4___closed__1, align 8, !tbaa !4
  %52 = tail call ptr @lean_string_append(ptr noundef %42, ptr noundef %51) #6
  br label %lean_dec.exit.backedge

53:                                               ; preds = %lean_obj_tag.exit55
  %54 = getelementptr inbounds nuw i8, ptr %15, i64 8
  %55 = load ptr, ptr %54, align 8, !tbaa !4
  %56 = ptrtoint ptr %55 to i64
  %57 = and i64 %56, 1
  %.not61 = icmp eq i64 %57, 0
  br i1 %.not61, label %58, label %lean_inc.exit

58:                                               ; preds = %53
  %.val.i56 = load i32, ptr %55, align 4, !tbaa !8
  %59 = icmp sgt i32 %.val.i56, 0
  br i1 %59, label %60, label %62, !prof !11

60:                                               ; preds = %58
  %61 = add nuw i32 %.val.i56, 1
  store i32 %61, ptr %55, align 4, !tbaa !8
  br label %lean_inc.exit

62:                                               ; preds = %58
  %.not.i57 = icmp eq i32 %.val.i56, 0
  br i1 %.not.i57, label %lean_inc.exit, label %63

63:                                               ; preds = %62
  tail call void @lean_inc_ref_cold(ptr noundef nonnull %55) #6
  br label %lean_inc.exit

lean_inc.exit:                                    ; preds = %63, %62, %60, %53
  br i1 %.not, label %64, label %lean_dec.exit36

64:                                               ; preds = %lean_inc.exit
  %65 = load i32, ptr %15, align 4, !tbaa !8
  %66 = icmp sgt i32 %65, 1
  br i1 %66, label %67, label %69, !prof !11

67:                                               ; preds = %64
  %68 = add nsw i32 %65, -1
  store i32 %68, ptr %15, align 4, !tbaa !8
  br label %lean_dec.exit36

69:                                               ; preds = %64
  %.not.i38 = icmp eq i32 %65, 0
  br i1 %.not.i38, label %lean_dec.exit36, label %70

70:                                               ; preds = %69
  tail call void @lean_dec_ref_cold(ptr noundef nonnull %15) #6
  br label %lean_dec.exit36

lean_dec.exit36:                                  ; preds = %70, %69, %67, %lean_inc.exit
  %71 = tail call ptr @l___private_Init_Data_Repr_0__Nat_reprFast(ptr noundef %55) #6
  %72 = tail call ptr @l_addParenHeuristic(ptr noundef %71) #6
  %73 = ptrtoint ptr %71 to i64
  %74 = and i64 %73, 1
  %.not62 = icmp eq i64 %74, 0
  br i1 %.not62, label %75, label %lean_dec.exit35

75:                                               ; preds = %lean_dec.exit36
  %76 = load i32, ptr %71, align 4, !tbaa !8
  %77 = icmp sgt i32 %76, 1
  br i1 %77, label %78, label %80, !prof !11

78:                                               ; preds = %75
  %79 = add nsw i32 %76, -1
  store i32 %79, ptr %71, align 4, !tbaa !8
  br label %lean_dec.exit35

80:                                               ; preds = %75
  %.not.i40 = icmp eq i32 %76, 0
  br i1 %.not.i40, label %lean_dec.exit35, label %81

81:                                               ; preds = %80
  tail call void @lean_dec_ref_cold(ptr noundef nonnull %71) #6
  br label %lean_dec.exit35

lean_dec.exit35:                                  ; preds = %81, %80, %78, %lean_dec.exit36
  %82 = load ptr, ptr @l_List_foldl___at_Lean_Meta_RecursorInfo_instToString___spec__4___closed__2, align 8, !tbaa !4
  %83 = tail call ptr @lean_string_append(ptr noundef %82, ptr noundef %72) #6
  %84 = ptrtoint ptr %72 to i64
  %85 = and i64 %84, 1
  %.not63 = icmp eq i64 %85, 0
  br i1 %.not63, label %86, label %lean_dec.exit34

86:                                               ; preds = %lean_dec.exit35
  %87 = load i32, ptr %72, align 4, !tbaa !8
  %88 = icmp sgt i32 %87, 1
  br i1 %88, label %89, label %91, !prof !11

89:                                               ; preds = %86
  %90 = add nsw i32 %87, -1
  store i32 %90, ptr %72, align 4, !tbaa !8
  br label %lean_dec.exit34

91:                                               ; preds = %86
  %.not.i42 = icmp eq i32 %87, 0
  br i1 %.not.i42, label %lean_dec.exit34, label %92

92:                                               ; preds = %91
  tail call void @lean_dec_ref_cold(ptr noundef nonnull %72) #6
  br label %lean_dec.exit34

lean_dec.exit34:                                  ; preds = %92, %91, %89, %lean_dec.exit35
  %93 = load ptr, ptr @l_List_foldl___at_Lean_Meta_RecursorInfo_instToString___spec__4___closed__3, align 8, !tbaa !4
  %94 = tail call ptr @lean_string_append(ptr noundef %83, ptr noundef %93) #6
  %95 = tail call ptr @lean_string_append(ptr noundef %42, ptr noundef %94) #6
  %96 = ptrtoint ptr %94 to i64
  %97 = and i64 %96, 1
  %.not64 = icmp eq i64 %97, 0
  br i1 %.not64, label %98, label %lean_dec.exit.backedge

lean_dec.exit.backedge:                           ; preds = %lean_dec.exit34, %101, %103, %104, %50
  %.0.be = phi ptr [ %95, %lean_dec.exit34 ], [ %95, %101 ], [ %95, %103 ], [ %95, %104 ], [ %52, %50 ]
  br label %lean_dec.exit

98:                                               ; preds = %lean_dec.exit34
  %99 = load i32, ptr %94, align 4, !tbaa !8
  %100 = icmp sgt i32 %99, 1
  br i1 %100, label %101, label %103, !prof !11

101:                                              ; preds = %98
  %102 = add nsw i32 %99, -1
  store i32 %102, ptr %94, align 4, !tbaa !8
  br label %lean_dec.exit.backedge

103:                                              ; preds = %98
  %.not.i44 = icmp eq i32 %99, 0
  br i1 %.not.i44, label %lean_dec.exit.backedge, label %104

104:                                              ; preds = %103
  tail call void @lean_dec_ref_cold(ptr noundef nonnull %94) #6
  br label %lean_dec.exit.backedge
}